target datalayout = "e-m:e-p270:32:32-p271:32:32-p272:64:64-i64:64-i128:128-f80:128-n8:16:32:64-S128"
target triple = "x86_64-pc-linux-gnu"

%struct._GLFWlibrary = type { i32, %struct.GLFWallocator, %struct._GLFWplatform, %struct.anon, ptr, ptr, ptr, ptr, i32, i32, [16 x %struct._GLFWjoystick], ptr, i32, %struct._GLFWtls, %struct._GLFWtls, %struct._GLFWmutex, %struct.anon.8, %struct.anon.9, %struct.anon.10, %struct.anon.11, %struct.anon.12, %struct._GLFWlibraryWayland, %struct._GLFWlibraryX11, %struct._GLFWlibraryNull, %struct._GLFWlibraryGLX, %struct._GLFWlibraryLinux }
%struct.GLFWallocator = type { ptr, ptr, ptr, ptr }
%struct._GLFWplatform = type { i32, ptr, ptr, ptr, ptr, ptr, ptr, ptr, ptr, ptr, ptr, ptr, ptr, ptr, ptr, ptr, ptr, ptr, ptr, ptr, ptr, ptr, ptr, ptr, ptr, ptr, ptr, ptr, ptr, ptr, ptr, ptr, ptr, ptr, ptr, ptr, ptr, ptr, ptr, ptr, ptr, ptr, ptr, ptr, ptr, ptr, ptr, ptr, ptr, ptr, ptr, ptr, ptr, ptr, ptr, ptr, ptr, ptr, ptr, ptr, ptr, ptr, ptr, ptr, ptr, ptr, ptr, ptr, ptr, ptr, ptr, ptr }
%struct.anon = type { %struct._GLFWinitconfig, %struct._GLFWfbconfig, %struct._GLFWwndconfig, %struct._GLFWctxconfig, i32 }
%struct._GLFWinitconfig = type { i32, i32, i32, ptr, %struct.anon.0, %struct.anon.1, %struct.anon.2 }
%struct.anon.0 = type { i32, i32 }
%struct.anon.1 = type { i32 }
%struct.anon.2 = type { i32 }
%struct._GLFWfbconfig = type { i32, i32, i32, i32, i32, i32, i32, i32, i32, i32, i32, i32, i32, i32, i32, i32, i64 }
%struct._GLFWwndconfig = type { i32, i32, i32, i32, ptr, i32, i32, i32, i32, i32, i32, i32, i32, i32, i32, i32, i32, %struct.anon.3, %struct.anon.4, %struct.anon.5, %struct.anon.6 }
%struct.anon.3 = type { [256 x i8] }
%struct.anon.4 = type { [256 x i8], [256 x i8] }
%struct.anon.5 = type { i32, i32 }
%struct.anon.6 = type { [256 x i8] }
%struct._GLFWctxconfig = type { i32, i32, i32, i32, i32, i32, i32, i32, i32, i32, ptr, %struct.anon.7 }
%struct.anon.7 = type { i32 }
%struct._GLFWjoystick = type { i32, i32, ptr, i32, ptr, i32, ptr, i32, [128 x i8], ptr, [33 x i8], ptr, %struct._GLFWjoystickLinux }
%struct._GLFWjoystickLinux = type { i32, [4096 x i8], [512 x i32], [64 x i32], [64 x %struct.input_absinfo], [4 x [2 x i32]] }
%struct.input_absinfo = type { i32, i32, i32, i32, i32, i32 }
%struct._GLFWtls = type { %struct._GLFWtlsPOSIX }
%struct._GLFWtlsPOSIX = type { i32, i32 }
%struct._GLFWmutex = type { %struct._GLFWmutexPOSIX }
%struct._GLFWmutexPOSIX = type { i32, %union.pthread_mutex_t }
%union.pthread_mutex_t = type { %struct.__pthread_mutex_s }
%struct.__pthread_mutex_s = type { i32, i32, i32, i32, i32, i16, i16, %struct.__pthread_internal_list }
%struct.__pthread_internal_list = type { ptr, ptr }
%struct.anon.8 = type { i64, %struct._GLFWtimerPOSIX }
%struct._GLFWtimerPOSIX = type { i32, i64 }
%struct.anon.9 = type { i32, ptr, i32, i32, i32, i32, i32, i32, i32, i32, i32, i32, i32, i32, i32, i32, i32, i32, i32, i32, ptr, ptr, ptr, ptr, ptr, ptr, ptr, ptr, ptr, ptr, ptr, ptr, ptr, ptr, ptr, ptr, ptr, ptr, ptr }
%struct.anon.10 = type { ptr, ptr, ptr, ptr, ptr, ptr, ptr, ptr }
%struct.anon.11 = type { i32, ptr, [2 x ptr], ptr, i32, i32, i32, i32, i32, i32, i32 }
%struct.anon.12 = type { ptr, ptr }
%struct._GLFWlibraryWayland = type { ptr, ptr, ptr, ptr, ptr, ptr, ptr, ptr, ptr, ptr, ptr, ptr, ptr, ptr, ptr, ptr, ptr, ptr, ptr, i32, ptr, ptr, ptr, ptr, i32, ptr, ptr, ptr, ptr, ptr, i32, i32, i32, i32, i32, i32, i32, ptr, [256 x i16], [349 x i16], [349 x [5 x i8]], %struct.anon.13, ptr, ptr, %struct.anon.14, %struct.anon.15, %struct.anon.16, %struct.anon.17 }
%struct.anon.13 = type { ptr, ptr, ptr, ptr, ptr, i32, i32, i32, i32, i32, i32, i32, ptr, ptr, ptr, ptr, ptr, ptr, ptr, ptr, ptr, ptr, ptr, ptr, ptr, ptr, ptr, ptr, ptr, ptr, ptr, ptr }
%struct.anon.14 = type { ptr, ptr, ptr, ptr, ptr, ptr, ptr, ptr, ptr, ptr, ptr, ptr, ptr, ptr, ptr, ptr, ptr, ptr, ptr, ptr }
%struct.anon.15 = type { ptr, ptr, ptr, ptr, ptr }
%struct.anon.16 = type { ptr, ptr, ptr, ptr }
%struct.anon.17 = type { ptr, ptr, ptr, i32, ptr, ptr, ptr, ptr, ptr, ptr, ptr, ptr, ptr, ptr, ptr, ptr, ptr, ptr, ptr, ptr, ptr, ptr, ptr, ptr, ptr, ptr, ptr, ptr, ptr }
%struct._GLFWlibraryX11 = type { ptr, i32, i64, float, float, i64, i64, i32, ptr, ptr, i32, ptr, ptr, [349 x [5 x i8]], [256 x i16], [349 x i16], double, double, ptr, [2 x i32], i64, i64, i64, i64, i64, i64, i64, i64, i64, i64, i64, i64, i64, i64, i64, i64, i64, i64, i64, i64, i64, i64, i64, i64, i64, i64, i64, i64, i64, i64, i64, i64, i64, i64, i64, i64, i64, i64, i64, i64, i64, i64, i64, i64, i64, i64, i64, i64, i64, i64, %struct.anon.18, %struct.anon.19, %struct.anon.20, %struct.anon.21, %struct.anon.22, %struct.anon.23, %struct.anon.24, %struct.anon.25, %struct.anon.26, %struct.anon.27, %struct.anon.28, %struct.anon.29, %struct.anon.30 }
%struct.anon.18 = type { ptr, i32, ptr, ptr, ptr, ptr, ptr, ptr, ptr, ptr, ptr, ptr, ptr, ptr, ptr, ptr, ptr, ptr, ptr, ptr, ptr, ptr, ptr, ptr, ptr, ptr, ptr, ptr, ptr, ptr, ptr, ptr, ptr, ptr, ptr, ptr, ptr, ptr, ptr, ptr, ptr, ptr, ptr, ptr, ptr, ptr, ptr, ptr, ptr, ptr, ptr, ptr, ptr, ptr, ptr, ptr, ptr, ptr, ptr, ptr, ptr, ptr, ptr, ptr, ptr, ptr, ptr, ptr, ptr, ptr, ptr, ptr, ptr, ptr, ptr, ptr, ptr, ptr, ptr, ptr, ptr, ptr, ptr, ptr, ptr, ptr, ptr, ptr }
%struct.anon.19 = type { ptr, ptr, ptr, ptr }
%struct.anon.20 = type { i32, ptr, i32, i32, i32, i32, i32, i32, ptr, ptr, ptr, ptr, ptr, ptr, ptr, ptr, ptr, ptr, ptr, ptr, ptr, ptr, ptr, ptr, ptr }
%struct.anon.21 = type { i32, i32, i32, i32, i32, i32, i32, i32, ptr, ptr, ptr, ptr, ptr, ptr, ptr, ptr, ptr }
%struct.anon.22 = type { i32, i32, i32, i32, i32 }
%struct.anon.23 = type { i32, i64, i64 }
%struct.anon.24 = type { ptr, ptr, ptr, ptr, ptr, ptr, ptr }
%struct.anon.25 = type { i32, ptr, i32, i32, ptr, ptr, ptr }
%struct.anon.26 = type { ptr, ptr }
%struct.anon.27 = type { i32, ptr, i32, i32, ptr, ptr, ptr, ptr }
%struct.anon.28 = type { i32, ptr, i32, i32, i32, i32, i32, ptr, ptr }
%struct.anon.29 = type { i32, ptr, i32, i32, i32, i32, ptr, ptr, ptr }
%struct.anon.30 = type { i32, ptr, i32, i32, i32, i32, ptr, ptr, ptr, ptr }
%struct._GLFWlibraryNull = type { i32, i32, ptr, ptr, [121 x i16], [349 x i8] }
%struct._GLFWlibraryGLX = type { i32, i32, i32, i32, ptr, ptr, ptr, ptr, ptr, ptr, ptr, ptr, ptr, ptr, ptr, ptr, ptr, ptr, ptr, ptr, ptr, ptr, ptr, ptr, i32, i32, i32, i32, i32, i32, i32, i32, i32, i32, i32, i32 }
%struct._GLFWlibraryLinux = type { i32, i32, %struct.re_pattern_buffer, i32, i32 }
%struct.re_pattern_buffer = type { ptr, i64, i64, i64, ptr, ptr, i64, i8 }
%struct._GLFWwindow = type { ptr, i32, i32, i32, i32, i32, i32, i32, ptr, i32, %struct.GLFWvidmode, ptr, ptr, ptr, i32, i32, i32, i32, i32, i32, i32, i32, i32, i32, [8 x i8], [349 x i8], double, double, i32, %struct._GLFWcontext, %struct.anon.33, %struct._GLFWwindowWayland, %struct._GLFWwindowX11, %struct._GLFWwindowNull }
%struct.GLFWvidmode = type { i32, i32, i32, i32, i32, i32 }
%struct._GLFWcontext = type { i32, i32, i32, i32, i32, i32, i32, i32, i32, i32, i32, ptr, ptr, ptr, ptr, ptr, ptr, ptr, ptr, ptr, %struct.anon.31, %struct.anon.32, %struct._GLFWcontextGLX }
%struct.anon.31 = type { ptr, ptr, ptr, ptr }
%struct.anon.32 = type { ptr, i32, i32, ptr }
%struct._GLFWcontextGLX = type { ptr, i64 }
%struct.anon.33 = type { ptr, ptr, ptr, ptr, ptr, ptr, ptr, ptr, ptr, ptr, ptr, ptr, ptr, ptr, ptr, ptr, ptr }
%struct._GLFWwindowWayland = type { i32, i32, i32, i32, i32, i32, i32, i32, i32, i32, i32, ptr, ptr, %struct.anon.34, %struct.anon.35, %struct.anon.36, %struct.anon.37, ptr, double, double, ptr, i32, ptr, i64, i64, ptr, i32, ptr, ptr, ptr, ptr, ptr, ptr, %struct.anon.38 }
%struct.anon.34 = type { ptr }
%struct.anon.35 = type { i32, i32, i32, i32, i32, i32 }
%struct.anon.36 = type { ptr, ptr, ptr, i32 }
%struct.anon.37 = type { ptr }
%struct.anon.38 = type { i32, ptr, %struct._GLFWfallbackEdgeWayland, %struct._GLFWfallbackEdgeWayland, %struct._GLFWfallbackEdgeWayland, %struct._GLFWfallbackEdgeWayland, ptr }
%struct._GLFWfallbackEdgeWayland = type { ptr, ptr, ptr }
%struct._GLFWwindowX11 = type { i64, i64, i64, ptr, i32, i32, i32, i32, i32, i32, i32, i32, i32, i32, i32, i32, [256 x i64] }
%struct._GLFWwindowNull = type { i32, i32, i32, i32, i32, i32, i32, i32, i32, i32, i32, float }
%struct.GLFWimage = type { i32, i32, ptr }

@_glfw = external global %struct._GLFWlibrary, align 8
@__const.createFallbackDecorations.data = private unnamed_addr constant [4 x i8] c"\E0\E0\E0\FF", align 1

; Function Attrs: nounwind uwtable
define internal void @createFallbackDecorations(ptr noundef %0) #0 {
  %2 = alloca ptr, align 8
  %3 = alloca [4 x i8], align 1
  %4 = alloca %struct.GLFWimage, align 8
  %5 = alloca i32, align 4
  store ptr %0, ptr %2, align 8, !tbaa !3
  call void @llvm.lifetime.start.p0(i64 4, ptr %3) #9
  call void @llvm.memcpy.p0.p0.i64(ptr align 1 %3, ptr align 1 @__const.createFallbackDecorations.data, i64 4, i1 false)
  call void @llvm.lifetime.start.p0(i64 16, ptr %4) #9
  %6 = getelementptr inbounds nuw %struct.GLFWimage, ptr %4, i32 0, i32 0
  store i32 1, ptr %6, align 8, !tbaa !295
  %7 = getelementptr inbounds nuw %struct.GLFWimage, ptr %4, i32 0, i32 1
  store i32 1, ptr %7, align 4, !tbaa !297
  %8 = getelementptr inbounds nuw %struct.GLFWimage, ptr %4, i32 0, i32 2
  %9 = getelementptr inbounds [4 x i8], ptr %3, i64 0, i64 0
  store ptr %9, ptr %8, align 8, !tbaa !298
  %10 = load ptr, ptr getelementptr inbounds nuw (%struct._GLFWlibraryWayland, ptr getelementptr inbounds nuw (%struct._GLFWlibrary, ptr @_glfw, i32 0, i32 21), i32 0, i32 12), align 8, !tbaa !228
  %11 = icmp ne ptr %10, null
  br i1 %11, label %13, label %12

12:                                               ; preds = %1
  store i32 1, ptr %5, align 4
  br label %122

13:                                               ; preds = %1
  %14 = load ptr, ptr %2, align 8, !tbaa !3
  %15 = getelementptr inbounds nuw %struct._GLFWwindow, ptr %14, i32 0, i32 31
  %16 = getelementptr inbounds nuw %struct._GLFWwindowWayland, ptr %15, i32 0, i32 33
  %17 = getelementptr inbounds nuw %struct.anon.38, ptr %16, i32 0, i32 1
  %18 = load ptr, ptr %17, align 8, !tbaa !240
  %19 = icmp ne ptr %18, null
  br i1 %19, label %26, label %20

20:                                               ; preds = %13
  %21 = call ptr @createShmBuffer(ptr noundef %4)
  %22 = load ptr, ptr %2, align 8, !tbaa !3
  %23 = getelementptr inbounds nuw %struct._GLFWwindow, ptr %22, i32 0, i32 31
  %24 = getelementptr inbounds nuw %struct._GLFWwindowWayland, ptr %23, i32 0, i32 33
  %25 = getelementptr inbounds nuw %struct.anon.38, ptr %24, i32 0, i32 1
  store ptr %21, ptr %25, align 8, !tbaa !240
  br label %26

26:                                               ; preds = %20, %13
  %27 = load ptr, ptr %2, align 8, !tbaa !3
  %28 = getelementptr inbounds nuw %struct._GLFWwindow, ptr %27, i32 0, i32 31
  %29 = getelementptr inbounds nuw %struct._GLFWwindowWayland, ptr %28, i32 0, i32 33
  %30 = getelementptr inbounds nuw %struct.anon.38, ptr %29, i32 0, i32 1
  %31 = load ptr, ptr %30, align 8, !tbaa !240
  %32 = icmp ne ptr %31, null
  br i1 %32, label %34, label %33

33:                                               ; preds = %26
  store i32 1, ptr %5, align 4
  br label %122

34:                                               ; preds = %26
  %35 = load ptr, ptr %2, align 8, !tbaa !3
  %36 = load ptr, ptr %2, align 8, !tbaa !3
  %37 = getelementptr inbounds nuw %struct._GLFWwindow, ptr %36, i32 0, i32 31
  %38 = getelementptr inbounds nuw %struct._GLFWwindowWayland, ptr %37, i32 0, i32 33
  %39 = getelementptr inbounds nuw %struct.anon.38, ptr %38, i32 0, i32 2
  %40 = load ptr, ptr %2, align 8, !tbaa !3
  %41 = getelementptr inbounds nuw %struct._GLFWwindow, ptr %40, i32 0, i32 31
  %42 = getelementptr inbounds nuw %struct._GLFWwindowWayland, ptr %41, i32 0, i32 11
  %43 = load ptr, ptr %42, align 8, !tbaa !137
  %44 = load ptr, ptr %2, align 8, !tbaa !3
  %45 = getelementptr inbounds nuw %struct._GLFWwindow, ptr %44, i32 0, i32 31
  %46 = getelementptr inbounds nuw %struct._GLFWwindowWayland, ptr %45, i32 0, i32 33
  %47 = getelementptr inbounds nuw %struct.anon.38, ptr %46, i32 0, i32 1
  %48 = load ptr, ptr %47, align 8, !tbaa !240
  %49 = load ptr, ptr %2, align 8, !tbaa !3
  %50 = getelementptr inbounds nuw %struct._GLFWwindow, ptr %49, i32 0, i32 31
  %51 = getelementptr inbounds nuw %struct._GLFWwindowWayland, ptr %50, i32 0, i32 0
  %52 = load i32, ptr %51, align 8, !tbaa !143
  call void @createFallbackEdge(ptr noundef %35, ptr noundef %39, ptr noundef %43, ptr noundef %48, i32 noundef 0, i32 noundef -24, i32 noundef %52, i32 noundef 24)
  %53 = load ptr, ptr %2, align 8, !tbaa !3
  %54 = load ptr, ptr %2, align 8, !tbaa !3
  %55 = getelementptr inbounds nuw %struct._GLFWwindow, ptr %54, i32 0, i32 31
  %56 = getelementptr inbounds nuw %struct._GLFWwindowWayland, ptr %55, i32 0, i32 33
  %57 = getelementptr inbounds nuw %struct.anon.38, ptr %56, i32 0, i32 3
  %58 = load ptr, ptr %2, align 8, !tbaa !3
  %59 = getelementptr inbounds nuw %struct._GLFWwindow, ptr %58, i32 0, i32 31
  %60 = getelementptr inbounds nuw %struct._GLFWwindowWayland, ptr %59, i32 0, i32 11
  %61 = load ptr, ptr %60, align 8, !tbaa !137
  %62 = load ptr, ptr %2, align 8, !tbaa !3
  %63 = getelementptr inbounds nuw %struct._GLFWwindow, ptr %62, i32 0, i32 31
  %64 = getelementptr inbounds nuw %struct._GLFWwindowWayland, ptr %63, i32 0, i32 33
  %65 = getelementptr inbounds nuw %struct.anon.38, ptr %64, i32 0, i32 1
  %66 = load ptr, ptr %65, align 8, !tbaa !240
  %67 = load ptr, ptr %2, align 8, !tbaa !3
  %68 = getelementptr inbounds nuw %struct._GLFWwindow, ptr %67, i32 0, i32 31
  %69 = getelementptr inbounds nuw %struct._GLFWwindowWayland, ptr %68, i32 0, i32 1
  %70 = load i32, ptr %69, align 4, !tbaa !146
  %71 = add nsw i32 %70, 24
  call void @createFallbackEdge(ptr noundef %53, ptr noundef %57, ptr noundef %61, ptr noundef %66, i32 noundef -4, i32 noundef -24, i32 noundef 4, i32 noundef %71)
  %72 = load ptr, ptr %2, align 8, !tbaa !3
  %73 = load ptr, ptr %2, align 8, !tbaa !3
  %74 = getelementptr inbounds nuw %struct._GLFWwindow, ptr %73, i32 0, i32 31
  %75 = getelementptr inbounds nuw %struct._GLFWwindowWayland, ptr %74, i32 0, i32 33
  %76 = getelementptr inbounds nuw %struct.anon.38, ptr %75, i32 0, i32 4
  %77 = load ptr, ptr %2, align 8, !tbaa !3
  %78 = getelementptr inbounds nuw %struct._GLFWwindow, ptr %77, i32 0, i32 31
  %79 = getelementptr inbounds nuw %struct._GLFWwindowWayland, ptr %78, i32 0, i32 11
  %80 = load ptr, ptr %79, align 8, !tbaa !137
  %81 = load ptr, ptr %2, align 8, !tbaa !3
  %82 = getelementptr inbounds nuw %struct._GLFWwindow, ptr %81, i32 0, i32 31
  %83 = getelementptr inbounds nuw %struct._GLFWwindowWayland, ptr %82, i32 0, i32 33
  %84 = getelementptr inbounds nuw %struct.anon.38, ptr %83, i32 0, i32 1
  %85 = load ptr, ptr %84, align 8, !tbaa !240
  %86 = load ptr, ptr %2, align 8, !tbaa !3
  %87 = getelementptr inbounds nuw %struct._GLFWwindow, ptr %86, i32 0, i32 31
  %88 = getelementptr inbounds nuw %struct._GLFWwindowWayland, ptr %87, i32 0, i32 0
  %89 = load i32, ptr %88, align 8, !tbaa !143
  %90 = load ptr, ptr %2, align 8, !tbaa !3
  %91 = getelementptr inbounds nuw %struct._GLFWwindow, ptr %90, i32 0, i32 31
  %92 = getelementptr inbounds nuw %struct._GLFWwindowWayland, ptr %91, i32 0, i32 1
  %93 = load i32, ptr %92, align 4, !tbaa !146
  %94 = add nsw i32 %93, 24
  call void @createFallbackEdge(ptr noundef %72, ptr noundef %76, ptr noundef %80, ptr noundef %85, i32 noundef %89, i32 noundef -24, i32 noundef 4, i32 noundef %94)
  %95 = load ptr, ptr %2, align 8, !tbaa !3
  %96 = load ptr, ptr %2, align 8, !tbaa !3
  %97 = getelementptr inbounds nuw %struct._GLFWwindow, ptr %96, i32 0, i32 31
  %98 = getelementptr inbounds nuw %struct._GLFWwindowWayland, ptr %97, i32 0, i32 33
  %99 = getelementptr inbounds nuw %struct.anon.38, ptr %98, i32 0, i32 5
  %100 = load ptr, ptr %2, align 8, !tbaa !3
  %101 = getelementptr inbounds nuw %struct._GLFWwindow, ptr %100, i32 0, i32 31
  %102 = getelementptr inbounds nuw %struct._GLFWwindowWayland, ptr %101, i32 0, i32 11
  %103 = load ptr, ptr %102, align 8, !tbaa !137
  %104 = load ptr, ptr %2, align 8, !tbaa !3
  %105 = getelementptr inbounds nuw %struct._GLFWwindow, ptr %104, i32 0, i32 31
  %106 = getelementptr inbounds nuw %struct._GLFWwindowWayland, ptr %105, i32 0, i32 33
  %107 = getelementptr inbounds nuw %struct.anon.38, ptr %106, i32 0, i32 1
  %108 = load ptr, ptr %107, align 8, !tbaa !240
  %109 = load ptr, ptr %2, align 8, !tbaa !3
  %110 = getelementptr inbounds nuw %struct._GLFWwindow, ptr %109, i32 0, i32 31
  %111 = getelementptr inbounds nuw %struct._GLFWwindowWayland, ptr %110, i32 0, i32 1
  %112 = load i32, ptr %111, align 4, !tbaa !146
  %113 = load ptr, ptr %2, align 8, !tbaa !3
  %114 = getelementptr inbounds nuw %struct._GLFWwindow, ptr %113, i32 0, i32 31
  %115 = getelementptr inbounds nuw %struct._GLFWwindowWayland, ptr %114, i32 0, i32 0
  %116 = load i32, ptr %115, align 8, !tbaa !143
  %117 = add nsw i32 %116, 8
  call void @createFallbackEdge(ptr noundef %95, ptr noundef %99, ptr noundef %103, ptr noundef %108, i32 noundef -4, i32 noundef %112, i32 noundef %117, i32 noundef 4)
  %118 = load ptr, ptr %2, align 8, !tbaa !3
  %119 = getelementptr inbounds nuw %struct._GLFWwindow, ptr %118, i32 0, i32 31
  %120 = getelementptr inbounds nuw %struct._GLFWwindowWayland, ptr %119, i32 0, i32 33
  %121 = getelementptr inbounds nuw %struct.anon.38, ptr %120, i32 0, i32 0
  store i32 1, ptr %121, align 8, !tbaa !174
  store i32 0, ptr %5, align 4
  br label %122

122:                                              ; preds = %34, %33, %12
  call void @llvm.lifetime.end.p0(i64 16, ptr %4) #9
  call void @llvm.lifetime.end.p0(i64 4, ptr %3) #9
  %123 = load i32, ptr %5, align 4
  switch i32 %123, label %125 [
    i32 0, label %124
    i32 1, label %124
  ]

124:                                              ; preds = %122, %122
  ret void

125:                                              ; preds = %122
  unreachable
}