; Function Attrs: nounwind uwtable
define internal fastcc void @createFallbackDecorations(ptr noundef %0) unnamed_addr #0 {
  %2 = alloca [4 x i8], align 4
  %3 = alloca %struct.GLFWimage, align 8
  call void @llvm.lifetime.start.p0(i64 4, ptr nonnull %2) #20
  store i32 -2039584, ptr %2, align 4
  call void @llvm.lifetime.start.p0(i64 16, ptr nonnull %3) #20
  store i32 1, ptr %3, align 8, !tbaa !257
  %4 = getelementptr inbounds nuw i8, ptr %3, i64 4
  store i32 1, ptr %4, align 4, !tbaa !259
  %5 = getelementptr inbounds nuw i8, ptr %3, i64 8
  store ptr %2, ptr %5, align 8, !tbaa !260
  %6 = load ptr, ptr getelementptr inbounds nuw (i8, ptr @_glfw, i64 133984), align 8, !tbaa !197
  %.not = icmp eq ptr %6, null
  br i1 %.not, label %37, label %7

7:                                                ; preds = %1
  %8 = getelementptr inbounds nuw i8, ptr %0, i64 856
  %9 = getelementptr inbounds nuw i8, ptr %0, i64 1120
  %10 = getelementptr inbounds nuw i8, ptr %0, i64 1128
  %11 = load ptr, ptr %10, align 8, !tbaa !246
  %.not26 = icmp eq ptr %11, null
  br i1 %.not26, label %12, label %.thread

12:                                               ; preds = %7
  %13 = call fastcc ptr @createShmBuffer(ptr noundef nonnull %3)
  store ptr %13, ptr %10, align 8, !tbaa !246
  %.not27 = icmp eq ptr %13, null
  br i1 %.not27, label %37, label %.thread

.thread:                                          ; preds = %7, %12
  %14 = phi ptr [ %13, %12 ], [ %11, %7 ]
  %15 = getelementptr inbounds nuw i8, ptr %0, i64 1136
  %16 = getelementptr inbounds nuw i8, ptr %0, i64 904
  %17 = load ptr, ptr %16, align 8, !tbaa !135
  %18 = load i32, ptr %8, align 8, !tbaa !138
  call fastcc void @createFallbackEdge(ptr noundef nonnull %0, ptr noundef nonnull %15, ptr noundef %17, ptr noundef nonnull %14, i32 noundef 0, i32 noundef -24, i32 noundef %18, i32 noundef 24)
  %19 = getelementptr inbounds nuw i8, ptr %0, i64 1160
  %20 = load ptr, ptr %16, align 8, !tbaa !135
  %21 = load ptr, ptr %10, align 8, !tbaa !246
  %22 = getelementptr inbounds nuw i8, ptr %0, i64 860
  %23 = load i32, ptr %22, align 4, !tbaa !140
  %24 = add nsw i32 %23, 24
  call fastcc void @createFallbackEdge(ptr noundef nonnull %0, ptr noundef nonnull %19, ptr noundef %20, ptr noundef %21, i32 noundef -4, i32 noundef -24, i32 noundef 4, i32 noundef %24)
  %25 = getelementptr inbounds nuw i8, ptr %0, i64 1184
  %26 = load ptr, ptr %16, align 8, !tbaa !135
  %27 = load ptr, ptr %10, align 8, !tbaa !246
  %28 = load i32, ptr %8, align 8, !tbaa !138
  %29 = load i32, ptr %22, align 4, !tbaa !140
  %30 = add nsw i32 %29, 24
  call fastcc void @createFallbackEdge(ptr noundef nonnull %0, ptr noundef nonnull %25, ptr noundef %26, ptr noundef %27, i32 noundef %28, i32 noundef -24, i32 noundef 4, i32 noundef %30)
  %31 = getelementptr inbounds nuw i8, ptr %0, i64 1208
  %32 = load ptr, ptr %16, align 8, !tbaa !135
  %33 = load ptr, ptr %10, align 8, !tbaa !246
  %34 = load i32, ptr %22, align 4, !tbaa !140
  %35 = load i32, ptr %8, align 8, !tbaa !138
  %36 = add nsw i32 %35, 8
  call fastcc void @createFallbackEdge(ptr noundef nonnull %0, ptr noundef nonnull %31, ptr noundef %32, ptr noundef %33, i32 noundef -4, i32 noundef %34, i32 noundef %36, i32 noundef 4)
  store i32 1, ptr %9, align 8, !tbaa !162
  br label %37

37:                                               ; preds = %12, %1, %.thread
  call void @llvm.lifetime.end.p0(i64 16, ptr nonnull %3) #20
  call void @llvm.lifetime.end.p0(i64 4, ptr nonnull %2) #20
  ret void
}